target datalayout = "e-m:e-p270:32:32-p271:32:32-p272:64:64-i64:64-i128:128-f80:128-n8:16:32:64-S128"
target triple = "x86_64-pc-linux-gnu"

%class.dtNavMeshQuery = type { ptr, %"struct.dtNavMeshQuery::dtQueryData", ptr, ptr, ptr }
%"struct.dtNavMeshQuery::dtQueryData" = type { i32, ptr, float, i32, i32, [3 x float], [3 x float], ptr, i32, float }
%struct.dtPoly = type { i32, [6 x i16], [6 x i16], i16, i8, i8 }

; Function Attrs: mustprogress nounwind uwtable
define linkonce_odr void @_Z7dtVlerpPfPKfS1_f(ptr noundef %0, ptr noundef %1, ptr noundef %2, float noundef %3) #0 comdat {
  %5 = alloca ptr, align 8
  %6 = alloca ptr, align 8
  %7 = alloca ptr, align 8
  %8 = alloca float, align 4
  store ptr %0, ptr %5, align 8
  store ptr %1, ptr %6, align 8
  store ptr %2, ptr %7, align 8
  store float %3, ptr %8, align 4
  %9 = load ptr, ptr %6, align 8
  %10 = getelementptr inbounds float, ptr %9, i64 0
  %11 = load float, ptr %10, align 4
  %12 = load ptr, ptr %7, align 8
  %13 = getelementptr inbounds float, ptr %12, i64 0
  %14 = load float, ptr %13, align 4
  %15 = load ptr, ptr %6, align 8
  %16 = getelementptr inbounds float, ptr %15, i64 0
  %17 = load float, ptr %16, align 4
  %18 = fsub float %14, %17
  %19 = load float, ptr %8, align 4
  %20 = call float @llvm.fmuladd.f32(float %18, float %19, float %11)
  %21 = load ptr, ptr %5, align 8
  %22 = getelementptr inbounds float, ptr %21, i64 0
  store float %20, ptr %22, align 4
  %23 = load ptr, ptr %6, align 8
  %24 = getelementptr inbounds float, ptr %23, i64 1
  %25 = load float, ptr %24, align 4
  %26 = load ptr, ptr %7, align 8
  %27 = getelementptr inbounds float, ptr %26, i64 1
  %28 = load float, ptr %27, align 4
  %29 = load ptr, ptr %6, align 8
  %30 = getelementptr inbounds float, ptr %29, i64 1
  %31 = load float, ptr %30, align 4
  %32 = fsub float %28, %31
  %33 = load float, ptr %8, align 4
  %34 = call float @llvm.fmuladd.f32(float %32, float %33, float %25)
  %35 = load ptr, ptr %5, align 8
  %36 = getelementptr inbounds float, ptr %35, i64 1
  store float %34, ptr %36, align 4
  %37 = load ptr, ptr %6, align 8
  %38 = getelementptr inbounds float, ptr %37, i64 2
  %39 = load float, ptr %38, align 4
  %40 = load ptr, ptr %7, align 8
  %41 = getelementptr inbounds float, ptr %40, i64 2
  %42 = load float, ptr %41, align 4
  %43 = load ptr, ptr %6, align 8
  %44 = getelementptr inbounds float, ptr %43, i64 2
  %45 = load float, ptr %44, align 4
  %46 = fsub float %42, %45
  %47 = load float, ptr %8, align 4
  %48 = call float @llvm.fmuladd.f32(float %46, float %47, float %39)
  %49 = load ptr, ptr %5, align 8
  %50 = getelementptr inbounds float, ptr %49, i64 2
  store float %48, ptr %50, align 4
  ret void
}

; Function Attrs: mustprogress nounwind uwtable
define linkonce_odr noundef zeroext i8 @_ZNK6dtPoly7getAreaEv(ptr noundef nonnull align 4 dereferenceable(32) %0) #0 comdat align 2 {
  %2 = alloca ptr, align 8
  store ptr %0, ptr %2, align 8
  %3 = load ptr, ptr %2, align 8
  %4 = getelementptr inbounds %struct.dtPoly, ptr %3, i32 0, i32 5
  %5 = load i8, ptr %4, align 1
  %6 = zext i8 %5 to i32
  %7 = and i32 %6, 63
  %8 = trunc i32 %7 to i8
  ret i8 %8
}

; Function Attrs: mustprogress nounwind uwtable
define linkonce_odr noundef zeroext i1 @_Z14dtStatusFailedj(i32 noundef %0) #0 comdat {
  %2 = alloca i32, align 4
  store i32 %0, ptr %2, align 4
  %3 = load i32, ptr %2, align 4
  %4 = and i32 %3, -2147483648
  %5 = icmp ne i32 %4, 0
  ret i1 %5
}

; Function Attrs: mustprogress uwtable
define noundef i32 @_ZNK14dtNavMeshQuery13appendPortalsEiiPKfPKjPfPhPjPiii(ptr noundef nonnull align 8 dereferenceable(104) %0, i32 noundef %1, i32 noundef %2, ptr noundef %3, ptr noundef %4, ptr noundef %5, ptr noundef %6, ptr noundef %7, ptr noundef %8, i32 noundef %9, i32 noundef %10) #1 align 2 {
  %12 = alloca i32, align 4
  %13 = alloca ptr, align 8
  %14 = alloca i32, align 4
  %15 = alloca i32, align 4
  %16 = alloca ptr, align 8
  %17 = alloca ptr, align 8
  %18 = alloca ptr, align 8
  %19 = alloca ptr, align 8
  %20 = alloca ptr, align 8
  %21 = alloca ptr, align 8
  %22 = alloca i32, align 4
  %23 = alloca i32, align 4
  %24 = alloca ptr, align 8
  %25 = alloca i32, align 4
  %26 = alloca i32, align 4
  %27 = alloca i32, align 4
  %28 = alloca ptr, align 8
  %29 = alloca ptr, align 8
  %30 = alloca i32, align 4
  %31 = alloca ptr, align 8
  %32 = alloca ptr, align 8
  %33 = alloca [3 x float], align 4
  %34 = alloca [3 x float], align 4
  %35 = alloca float, align 4
  %36 = alloca float, align 4
  %37 = alloca [3 x float], align 4
  store ptr %0, ptr %13, align 8
  store i32 %1, ptr %14, align 4
  store i32 %2, ptr %15, align 4
  store ptr %3, ptr %16, align 8
  store ptr %4, ptr %17, align 8
  store ptr %5, ptr %18, align 8
  store ptr %6, ptr %19, align 8
  store ptr %7, ptr %20, align 8
  store ptr %8, ptr %21, align 8
  store i32 %9, ptr %22, align 4
  store i32 %10, ptr %23, align 4
  %38 = load ptr, ptr %13, align 8
  %39 = load ptr, ptr %18, align 8
  %40 = load ptr, ptr %21, align 8
  %41 = load i32, ptr %40, align 4
  %42 = sub nsw i32 %41, 1
  %43 = mul nsw i32 %42, 3
  %44 = sext i32 %43 to i64
  %45 = getelementptr inbounds float, ptr %39, i64 %44
  store ptr %45, ptr %24, align 8
  store i32 0, ptr %25, align 4
  %46 = load i32, ptr %14, align 4
  store i32 %46, ptr %26, align 4
  br label %47

47:                                               ; preds = %132, %11
  %48 = load i32, ptr %26, align 4
  %49 = load i32, ptr %15, align 4
  %50 = icmp slt i32 %48, %49
  br i1 %50, label %51, label %135

51:                                               ; preds = %47
  %52 = load ptr, ptr %17, align 8
  %53 = load i32, ptr %26, align 4
  %54 = sext i32 %53 to i64
  %55 = getelementptr inbounds i32, ptr %52, i64 %54
  %56 = load i32, ptr %55, align 4
  store i32 %56, ptr %27, align 4
  store ptr null, ptr %28, align 8
  store ptr null, ptr %29, align 8
  %57 = getelementptr inbounds %class.dtNavMeshQuery, ptr %38, i32 0, i32 0
  %58 = load ptr, ptr %57, align 8
  %59 = load i32, ptr %27, align 4
  %60 = call noundef i32 @_ZNK9dtNavMesh19getTileAndPolyByRefEjPPK10dtMeshTilePPK6dtPoly(ptr noundef nonnull align 8 dereferenceable(100) %58, i32 noundef %59, ptr noundef %28, ptr noundef %29)
  %61 = call noundef zeroext i1 @_Z14dtStatusFailedj(i32 noundef %60)
  br i1 %61, label %62, label %63

62:                                               ; preds = %51
  store i32 -2147483640, ptr %12, align 4
  br label %136

63:                                               ; preds = %51
  %64 = load ptr, ptr %17, align 8
  %65 = load i32, ptr %26, align 4
  %66 = add nsw i32 %65, 1
  %67 = sext i32 %66 to i64
  %68 = getelementptr inbounds i32, ptr %64, i64 %67
  %69 = load i32, ptr %68, align 4
  store i32 %69, ptr %30, align 4
  store ptr null, ptr %31, align 8
  store ptr null, ptr %32, align 8
  %70 = getelementptr inbounds %class.dtNavMeshQuery, ptr %38, i32 0, i32 0
  %71 = load ptr, ptr %70, align 8
  %72 = load i32, ptr %30, align 4
  %73 = call noundef i32 @_ZNK9dtNavMesh19getTileAndPolyByRefEjPPK10dtMeshTilePPK6dtPoly(ptr noundef nonnull align 8 dereferenceable(100) %71, i32 noundef %72, ptr noundef %31, ptr noundef %32)
  %74 = call noundef zeroext i1 @_Z14dtStatusFailedj(i32 noundef %73)
  br i1 %74, label %75, label %76

75:                                               ; preds = %63
  store i32 -2147483640, ptr %12, align 4
  br label %136

76:                                               ; preds = %63
  %77 = load i32, ptr %27, align 4
  %78 = load ptr, ptr %29, align 8
  %79 = load ptr, ptr %28, align 8
  %80 = load i32, ptr %30, align 4
  %81 = load ptr, ptr %32, align 8
  %82 = load ptr, ptr %31, align 8
  %83 = getelementptr inbounds [3 x float], ptr %33, i64 0, i64 0
  %84 = getelementptr inbounds [3 x float], ptr %34, i64 0, i64 0
  %85 = call noundef i32 @_ZNK14dtNavMeshQuery15getPortalPointsEjPK6dtPolyPK10dtMeshTilejS2_S5_PfS6_(ptr noundef nonnull align 8 dereferenceable(104) %38, i32 noundef %77, ptr noundef %78, ptr noundef %79, i32 noundef %80, ptr noundef %81, ptr noundef %82, ptr noundef %83, ptr noundef %84)
  %86 = call noundef zeroext i1 @_Z14dtStatusFailedj(i32 noundef %85)
  br i1 %86, label %87, label %88

87:                                               ; preds = %76
  br label %135

88:                                               ; preds = %76
  %89 = load i32, ptr %23, align 4
  %90 = and i32 %89, 1
  %91 = icmp ne i32 %90, 0
  br i1 %91, label %92, label %102

92:                                               ; preds = %88
  %93 = load ptr, ptr %29, align 8
  %94 = call noundef zeroext i8 @_ZNK6dtPoly7getAreaEv(ptr noundef nonnull align 4 dereferenceable(32) %93)
  %95 = zext i8 %94 to i32
  %96 = load ptr, ptr %32, align 8
  %97 = call noundef zeroext i8 @_ZNK6dtPoly7getAreaEv(ptr noundef nonnull align 4 dereferenceable(32) %96)
  %98 = zext i8 %97 to i32
  %99 = icmp eq i32 %95, %98
  br i1 %99, label %100, label %101

100:                                              ; preds = %92
  br label %132

101:                                              ; preds = %92
  br label %102

102:                                              ; preds = %101, %88
  %103 = load ptr, ptr %24, align 8
  %104 = load ptr, ptr %16, align 8
  %105 = getelementptr inbounds [3 x float], ptr %33, i64 0, i64 0
  %106 = getelementptr inbounds [3 x float], ptr %34, i64 0, i64 0
  %107 = call noundef zeroext i1 @_Z19dtIntersectSegSeg2DPKfS0_S0_S0_RfS1_(ptr noundef %103, ptr noundef %104, ptr noundef %105, ptr noundef %106, ptr noundef nonnull align 4 dereferenceable(4) %35, ptr noundef nonnull align 4 dereferenceable(4) %36)
  br i1 %107, label %108, label %131

108:                                              ; preds = %102
  %109 = getelementptr inbounds [3 x float], ptr %37, i64 0, i64 0
  %110 = getelementptr inbounds [3 x float], ptr %33, i64 0, i64 0
  %111 = getelementptr inbounds [3 x float], ptr %34, i64 0, i64 0
  %112 = load float, ptr %36, align 4
  call void @_Z7dtVlerpPfPKfS1_f(ptr noundef %109, ptr noundef %110, ptr noundef %111, float noundef %112)
  %113 = getelementptr inbounds [3 x float], ptr %37, i64 0, i64 0
  %114 = load ptr, ptr %17, align 8
  %115 = load i32, ptr %26, align 4
  %116 = add nsw i32 %115, 1
  %117 = sext i32 %116 to i64
  %118 = getelementptr inbounds i32, ptr %114, i64 %117
  %119 = load i32, ptr %118, align 4
  %120 = load ptr, ptr %18, align 8
  %121 = load ptr, ptr %19, align 8
  %122 = load ptr, ptr %20, align 8
  %123 = load ptr, ptr %21, align 8
  %124 = load i32, ptr %22, align 4
  %125 = call noundef i32 @_ZNK14dtNavMeshQuery12appendVertexEPKfhjPfPhPjPii(ptr noundef nonnull align 8 dereferenceable(104) %38, ptr noundef %113, i8 noundef zeroext 0, i32 noundef %119, ptr noundef %120, ptr noundef %121, ptr noundef %122, ptr noundef %123, i32 noundef %124)
  store i32 %125, ptr %25, align 4
  %126 = load i32, ptr %25, align 4
  %127 = icmp ne i32 %126, 536870912
  br i1 %127, label %128, label %130

128:                                              ; preds = %108
  %129 = load i32, ptr %25, align 4
  store i32 %129, ptr %12, align 4
  br label %136

130:                                              ; preds = %108
  br label %131

131:                                              ; preds = %130, %102
  br label %132

132:                                              ; preds = %131, %100
  %133 = load i32, ptr %26, align 4
  %134 = add nsw i32 %133, 1
  store i32 %134, ptr %26, align 4
  br label %47, !llvm.loop !42

135:                                              ; preds = %87, %47
  store i32 536870912, ptr %12, align 4
  br label %136

136:                                              ; preds = %135, %128, %75, %62
  %137 = load i32, ptr %12, align 4
  ret i32 %137
}