; Function Attrs: mustprogress uwtable
define noundef i32 @_ZNK14dtNavMeshQuery13appendPortalsEiiPKfPKjPfPhPjPiii(ptr nocapture noundef nonnull readonly align 8 dereferenceable(104) %0, i32 noundef %1, i32 noundef %2, ptr noundef %3, ptr nocapture noundef readonly %4, ptr noundef %5, ptr noundef %6, ptr noundef %7, ptr nocapture noundef %8, i32 noundef %9, i32 noundef %10) local_unnamed_addr #1 align 2 {
  %12 = alloca ptr, align 8
  %13 = alloca ptr, align 8
  %14 = alloca ptr, align 8
  %15 = alloca ptr, align 8
  %16 = alloca [3 x float], align 8
  %17 = alloca [3 x float], align 8
  %18 = alloca float, align 4
  %19 = alloca float, align 4
  %20 = alloca [3 x float], align 8
  %21 = load i32, ptr %8, align 4
  %22 = mul i32 %21, 3
  %23 = add i32 %22, -3
  %24 = sext i32 %23 to i64
  %25 = getelementptr inbounds float, ptr %5, i64 %24
  %26 = icmp slt i32 %1, %2
  br i1 %26, label %.lr.ph, label %._crit_edge

.lr.ph:                                           ; preds = %11
  %27 = and i32 %10, 1
  %.not = icmp eq i32 %27, 0
  %28 = getelementptr inbounds i8, ptr %16, i64 8
  %29 = getelementptr inbounds i8, ptr %17, i64 8
  %30 = getelementptr inbounds i8, ptr %20, i64 8
  %31 = sext i32 %1 to i64
  %wide.trip.count = sext i32 %2 to i64
  br label %32

32:                                               ; preds = %.lr.ph, %76
  %indvars.iv = phi i64 [ %31, %.lr.ph ], [ %indvars.iv.next, %76 ]
  %33 = getelementptr inbounds i32, ptr %4, i64 %indvars.iv
  %34 = load i32, ptr %33, align 4
  store ptr null, ptr %12, align 8
  store ptr null, ptr %13, align 8
  %35 = load ptr, ptr %0, align 8
  %36 = call noundef i32 @_ZNK9dtNavMesh19getTileAndPolyByRefEjPPK10dtMeshTilePPK6dtPoly(ptr noundef nonnull align 8 dereferenceable(100) %35, i32 noundef %34, ptr noundef nonnull %12, ptr noundef nonnull %13)
  %37 = icmp slt i32 %36, 0
  br i1 %37, label %._crit_edge, label %38

38:                                               ; preds = %32
  %indvars.iv.next = add nsw i64 %indvars.iv, 1
  %39 = getelementptr inbounds i32, ptr %4, i64 %indvars.iv.next
  %40 = load i32, ptr %39, align 4
  store ptr null, ptr %14, align 8
  store ptr null, ptr %15, align 8
  %41 = load ptr, ptr %0, align 8
  %42 = call noundef i32 @_ZNK9dtNavMesh19getTileAndPolyByRefEjPPK10dtMeshTilePPK6dtPoly(ptr noundef nonnull align 8 dereferenceable(100) %41, i32 noundef %40, ptr noundef nonnull %14, ptr noundef nonnull %15)
  %43 = icmp slt i32 %42, 0
  br i1 %43, label %._crit_edge, label %44

44:                                               ; preds = %38
  %45 = load ptr, ptr %13, align 8
  %46 = load ptr, ptr %12, align 8
  %47 = load ptr, ptr %15, align 8
  %48 = load ptr, ptr %14, align 8
  %49 = call noundef i32 @_ZNK14dtNavMeshQuery15getPortalPointsEjPK6dtPolyPK10dtMeshTilejS2_S5_PfS6_(ptr nonnull align 8 poison, i32 noundef %34, ptr noundef %45, ptr noundef %46, i32 noundef %40, ptr noundef %47, ptr noundef %48, ptr noundef nonnull %16, ptr noundef nonnull %17), !range !12
  %50 = icmp slt i32 %49, 0
  br i1 %50, label %._crit_edge, label %51

51:                                               ; preds = %44
  br i1 %.not, label %60, label %52

52:                                               ; preds = %51
  %53 = getelementptr inbounds i8, ptr %45, i64 31
  %54 = load i8, ptr %53, align 1
  %55 = getelementptr inbounds i8, ptr %47, i64 31
  %56 = load i8, ptr %55, align 1
  %57 = xor i8 %56, %54
  %58 = and i8 %57, 63
  %59 = icmp eq i8 %58, 0
  br i1 %59, label %76, label %60

60:                                               ; preds = %52, %51
  %61 = call noundef zeroext i1 @_Z19dtIntersectSegSeg2DPKfS0_S0_S0_RfS1_(ptr noundef %25, ptr noundef %3, ptr noundef nonnull %16, ptr noundef nonnull %17, ptr noundef nonnull align 4 dereferenceable(4) %18, ptr noundef nonnull align 4 dereferenceable(4) %19)
  br i1 %61, label %62, label %76

62:                                               ; preds = %60
  %63 = load float, ptr %19, align 4
  %64 = load <2 x float>, ptr %16, align 8
  %65 = load <2 x float>, ptr %17, align 8
  %66 = fsub <2 x float> %65, %64
  %67 = insertelement <2 x float> poison, float %63, i64 0
  %68 = shufflevector <2 x float> %67, <2 x float> poison, <2 x i32> zeroinitializer
  %69 = call <2 x float> @llvm.fmuladd.v2f32(<2 x float> %66, <2 x float> %68, <2 x float> %64)
  store <2 x float> %69, ptr %20, align 8
  %70 = load float, ptr %28, align 8
  %71 = load float, ptr %29, align 8
  %72 = fsub float %71, %70
  %73 = call float @llvm.fmuladd.f32(float %72, float %63, float %70)
  store float %73, ptr %30, align 8
  %74 = load i32, ptr %39, align 4
  %75 = call noundef i32 @_ZNK14dtNavMeshQuery12appendVertexEPKfhjPfPhPjPii(ptr nonnull align 8 poison, ptr noundef nonnull %20, i8 noundef zeroext 0, i32 noundef %74, ptr noundef %5, ptr noundef %6, ptr noundef %7, ptr noundef nonnull %8, i32 noundef %9), !range !44
  %.not29 = icmp eq i32 %75, 536870912
  br i1 %.not29, label %76, label %._crit_edge

76:                                               ; preds = %60, %62, %52
  %exitcond.not = icmp eq i64 %indvars.iv.next, %wide.trip.count
  br i1 %exitcond.not, label %._crit_edge, label %32, !llvm.loop !45

._crit_edge:                                      ; preds = %32, %38, %62, %44, %76, %11
  %.0 = phi i32 [ 536870912, %11 ], [ 536870912, %76 ], [ 536870912, %44 ], [ %75, %62 ], [ -2147483640, %38 ], [ -2147483640, %32 ]
  ret i32 %.0
}